; Function Attrs: mustprogress nounwind uwtable
define hidden noundef ptr @_ZN11OptoRuntime21montgomerySquare_TypeEv() local_unnamed_addr #0 align 2 {
  %1 = tail call noundef ptr @_ZN9TypeTuple6fieldsEj(i32 noundef 6) #12
  %2 = load ptr, ptr @_ZN7TypePtr7NOTNULLE, align 8
  %3 = getelementptr inbounds i8, ptr %1, i64 40
  store ptr %2, ptr %3, align 8
  %4 = getelementptr inbounds i8, ptr %1, i64 48
  store ptr %2, ptr %4, align 8
  %5 = load ptr, ptr @_ZN7TypeInt3INTE, align 8
  %6 = getelementptr inbounds i8, ptr %1, i64 56
  store ptr %5, ptr %6, align 8
  %7 = load ptr, ptr @_ZN8TypeLong4LONGE, align 8
  %8 = getelementptr inbounds i8, ptr %1, i64 64
  store ptr %7, ptr %8, align 8
  %9 = load ptr, ptr @_ZN4Type4HALFE, align 8
  %10 = getelementptr inbounds i8, ptr %1, i64 72
  store ptr %9, ptr %10, align 8
  %11 = getelementptr inbounds i8, ptr %1, i64 80
  store ptr %2, ptr %11, align 8
  %12 = tail call noundef ptr @_ZN9TypeTuple4makeEjPPK4Type(i32 noundef 11, ptr noundef %1) #12
  %13 = tail call noundef ptr @_ZN9TypeTuple6fieldsEj(i32 noundef 1) #12
  %14 = load ptr, ptr @_ZN7TypePtr7NOTNULLE, align 8
  %15 = getelementptr inbounds i8, ptr %13, i64 40
  store ptr %14, ptr %15, align 8
  %16 = tail call noundef ptr @_ZN9TypeTuple4makeEjPPK4Type(i32 noundef 5, ptr noundef %13) #12
  %17 = tail call noundef ptr @_ZN8TypeFunc4makeEPK9TypeTupleS2_(ptr noundef %12, ptr noundef %16) #12
  ret ptr %17
}